target datalayout = "e-m:e-p270:32:32-p271:32:32-p272:64:64-i64:64-i128:128-f80:128-n8:16:32:64-S128"
target triple = "x86_64-pc-linux-gnu"

%struct.TValue = type { %union.Value, i8 }
%union.Value = type { ptr }

; Function Attrs: nounwind uwtable
define hidden i32 @luaV_flttointeger(double noundef %0, ptr noundef %1, i32 noundef %2) #0 {
  %4 = alloca i32, align 4
  %5 = alloca double, align 8
  %6 = alloca ptr, align 8
  %7 = alloca i32, align 4
  %8 = alloca double, align 8
  %9 = alloca i32, align 4
  store double %0, ptr %5, align 8, !tbaa !14
  store ptr %1, ptr %6, align 8, !tbaa !27
  store i32 %2, ptr %7, align 4, !tbaa !29
  call void @llvm.lifetime.start.p0(i64 8, ptr %8) #10
  %10 = load double, ptr %5, align 8, !tbaa !14
  %11 = call double @llvm.floor.f64(double %10)
  store double %11, ptr %8, align 8, !tbaa !14
  %12 = load double, ptr %5, align 8, !tbaa !14
  %13 = load double, ptr %8, align 8, !tbaa !14
  %14 = fcmp une double %12, %13
  br i1 %14, label %15, label %27

15:                                               ; preds = %3
  %16 = load i32, ptr %7, align 4, !tbaa !29
  %17 = icmp eq i32 %16, 0
  br i1 %17, label %18, label %19

18:                                               ; preds = %15
  store i32 0, ptr %4, align 4
  store i32 1, ptr %9, align 4
  br label %40

19:                                               ; preds = %15
  %20 = load i32, ptr %7, align 4, !tbaa !29
  %21 = icmp eq i32 %20, 2
  br i1 %21, label %22, label %25

22:                                               ; preds = %19
  %23 = load double, ptr %8, align 8, !tbaa !14
  %24 = fadd double %23, 1.000000e+00
  store double %24, ptr %8, align 8, !tbaa !14
  br label %25

25:                                               ; preds = %22, %19
  br label %26

26:                                               ; preds = %25
  br label %27

27:                                               ; preds = %26, %3
  %28 = load double, ptr %8, align 8, !tbaa !14
  %29 = fcmp oge double %28, 0xC3E0000000000000
  br i1 %29, label %30, label %37

30:                                               ; preds = %27
  %31 = load double, ptr %8, align 8, !tbaa !14
  %32 = fcmp olt double %31, 0x43E0000000000000
  br i1 %32, label %33, label %37

33:                                               ; preds = %30
  %34 = load double, ptr %8, align 8, !tbaa !14
  %35 = fptosi double %34 to i64
  %36 = load ptr, ptr %6, align 8, !tbaa !27
  store i64 %35, ptr %36, align 8, !tbaa !30
  br label %37

37:                                               ; preds = %33, %30, %27
  %38 = phi i1 [ false, %30 ], [ false, %27 ], [ true, %33 ]
  %39 = zext i1 %38 to i32
  store i32 %39, ptr %4, align 4
  store i32 1, ptr %9, align 4
  br label %40

40:                                               ; preds = %37, %18
  call void @llvm.lifetime.end.p0(i64 8, ptr %8) #10
  %41 = load i32, ptr %4, align 4
  ret i32 %41
}

; Function Attrs: nounwind uwtable
define hidden i32 @luaV_tointegerns(ptr noundef %0, ptr noundef %1, i32 noundef %2) #0 {
  %4 = alloca i32, align 4
  %5 = alloca ptr, align 8
  %6 = alloca ptr, align 8
  %7 = alloca i32, align 4
  store ptr %0, ptr %5, align 8, !tbaa !4
  store ptr %1, ptr %6, align 8, !tbaa !27
  store i32 %2, ptr %7, align 4, !tbaa !29
  %8 = load ptr, ptr %5, align 8, !tbaa !4
  %9 = getelementptr inbounds nuw %struct.TValue, ptr %8, i32 0, i32 1
  %10 = load i8, ptr %9, align 8, !tbaa !11
  %11 = zext i8 %10 to i32
  %12 = icmp eq i32 %11, 19
  br i1 %12, label %13, label %20

13:                                               ; preds = %3
  %14 = load ptr, ptr %5, align 8, !tbaa !4
  %15 = getelementptr inbounds nuw %struct.TValue, ptr %14, i32 0, i32 0
  %16 = load double, ptr %15, align 8, !tbaa !13
  %17 = load ptr, ptr %6, align 8, !tbaa !27
  %18 = load i32, ptr %7, align 4, !tbaa !29
  %19 = call i32 @luaV_flttointeger(double noundef %16, ptr noundef %17, i32 noundef %18)
  store i32 %19, ptr %4, align 4
  br label %32

20:                                               ; preds = %3
  %21 = load ptr, ptr %5, align 8, !tbaa !4
  %22 = getelementptr inbounds nuw %struct.TValue, ptr %21, i32 0, i32 1
  %23 = load i8, ptr %22, align 8, !tbaa !11
  %24 = zext i8 %23 to i32
  %25 = icmp eq i32 %24, 3
  br i1 %25, label %26, label %31

26:                                               ; preds = %20
  %27 = load ptr, ptr %5, align 8, !tbaa !4
  %28 = getelementptr inbounds nuw %struct.TValue, ptr %27, i32 0, i32 0
  %29 = load i64, ptr %28, align 8, !tbaa !13
  %30 = load ptr, ptr %6, align 8, !tbaa !27
  store i64 %29, ptr %30, align 8, !tbaa !30
  store i32 1, ptr %4, align 4
  br label %32

31:                                               ; preds = %20
  store i32 0, ptr %4, align 4
  br label %32

32:                                               ; preds = %31, %26, %13
  %33 = load i32, ptr %4, align 4
  ret i32 %33
}