; Function Attrs: mustprogress nofree norecurse nosync nounwind willreturn memory(argmem: readwrite) uwtable
define hidden range(i32 0, 2) i32 @luaV_tointegerns(ptr noundef readonly captures(none) %0, ptr noundef writeonly captures(none) %1, i32 noundef %2) local_unnamed_addr #4 {
  %4 = getelementptr inbounds nuw i8, ptr %0, i64 8
  %5 = load i8, ptr %4, align 8, !tbaa !4
  switch i8 %5, label %luaV_flttointeger.exit [
    i8 19, label %6
    i8 3, label %20
  ]

6:                                                ; preds = %3
  %7 = load double, ptr %0, align 8, !tbaa !8
  %8 = tail call double @llvm.floor.f64(double %7)
  %9 = fcmp une double %7, %8
  br i1 %9, label %10, label %13

10:                                               ; preds = %6
  switch i32 %2, label %13 [
    i32 0, label %luaV_flttointeger.exit
    i32 2, label %11
  ]

11:                                               ; preds = %10
  %12 = fadd double %8, 1.000000e+00
  br label %13

13:                                               ; preds = %11, %10, %6
  %.0.i = phi double [ %12, %11 ], [ %8, %6 ], [ %8, %10 ]
  %14 = fcmp oge double %.0.i, 0xC3E0000000000000
  %15 = fcmp olt double %.0.i, 0x43E0000000000000
  %or.cond.i = and i1 %14, %15
  br i1 %or.cond.i, label %16, label %18

16:                                               ; preds = %13
  %17 = fptosi double %.0.i to i64
  store i64 %17, ptr %1, align 8, !tbaa !18
  br label %18

18:                                               ; preds = %16, %13
  %19 = zext i1 %or.cond.i to i32
  br label %luaV_flttointeger.exit

20:                                               ; preds = %3
  %21 = load i64, ptr %0, align 8, !tbaa !8
  store i64 %21, ptr %1, align 8, !tbaa !18
  br label %luaV_flttointeger.exit

luaV_flttointeger.exit:                           ; preds = %18, %10, %3, %20
  %.0 = phi i32 [ 1, %20 ], [ 0, %3 ], [ %19, %18 ], [ %2, %10 ]
  ret i32 %.0
}